; Function Attrs: mustprogress uwtable
define noundef range(i32 0, 56) i32 @_ZN3net11CryptoUtils19ValidateServerHelloERKNS_22CryptoHandshakeMessageERKSt6vectorINS_11QuicVersionESaIS5_EEPNSt7__cxx1112basic_stringIcSt11char_traitsIcESaIcEEE(ptr noundef nonnull align 8 dereferenceable(72) %0, ptr noundef nonnull readonly align 8 captures(none) dereferenceable(24) %1, ptr noundef %2) local_unnamed_addr #0 align 2 {
  %4 = alloca ptr, align 8
  %5 = alloca i64, align 8
  %6 = load i32, ptr %0, align 8, !tbaa !57
  %.not = icmp eq i32 %6, 1330399315
  br i1 %.not, label %11, label %7

7:                                                ; preds = %3
  %8 = getelementptr inbounds nuw i8, ptr %2, i64 8
  %9 = load i64, ptr %8, align 8, !tbaa !26
  %10 = tail call noundef nonnull align 8 dereferenceable(32) ptr @_ZNSt7__cxx1112basic_stringIcSt11char_traitsIcESaIcEE10_M_replaceEmmPKcm(ptr noundef nonnull align 8 dereferenceable(32) %2, i64 noundef 0, i64 noundef %9, ptr noundef nonnull @.str.5, i64 noundef 7)
  br label %45

11:                                               ; preds = %3
  call void @llvm.lifetime.start.p0(i64 8, ptr nonnull %4) #13
  call void @llvm.lifetime.start.p0(i64 8, ptr nonnull %5) #13
  %12 = call noundef i32 @_ZNK3net22CryptoHandshakeMessage10GetTaglistEjPPKjPm(ptr noundef nonnull align 8 dereferenceable(72) %0, i32 noundef 5391702, ptr noundef nonnull %4, ptr noundef nonnull %5)
  %.not18 = icmp eq i32 %12, 0
  br i1 %.not18, label %17, label %13

13:                                               ; preds = %11
  %14 = getelementptr inbounds nuw i8, ptr %2, i64 8
  %15 = load i64, ptr %14, align 8, !tbaa !26
  %16 = call noundef nonnull align 8 dereferenceable(32) ptr @_ZNSt7__cxx1112basic_stringIcSt11char_traitsIcESaIcEE10_M_replaceEmmPKcm(ptr noundef nonnull align 8 dereferenceable(32) %2, i64 noundef 0, i64 noundef %15, ptr noundef nonnull @.str.6, i64 noundef 33)
  br label %.critedge

17:                                               ; preds = %11
  %18 = load ptr, ptr %1, align 8, !tbaa !75
  %19 = getelementptr inbounds nuw i8, ptr %1, i64 8
  %20 = load ptr, ptr %19, align 8, !tbaa !75
  %21 = icmp eq ptr %18, %20
  br i1 %21, label %.critedge, label %22

22:                                               ; preds = %17
  %23 = load i64, ptr %5, align 8, !tbaa !27
  %24 = ptrtoint ptr %20 to i64
  %25 = ptrtoint ptr %18 to i64
  %26 = sub i64 %24, %25
  %27 = ashr exact i64 %26, 2
  %28 = icmp ne i64 %23, %27
  %29 = icmp eq i64 %23, 0
  %.not2021 = select i1 %29, i1 true, i1 %28
  br i1 %.not2021, label %._crit_edge, label %.lr.ph

._crit_edge:                                      ; preds = %.lr.ph, %22
  %.015.in.lcssa = phi i1 [ %28, %22 ], [ %37, %.lr.ph ]
  br i1 %.015.in.lcssa, label %41, label %.critedge

.lr.ph:                                           ; preds = %22, %.lr.ph
  %.022 = phi i64 [ %38, %.lr.ph ], [ 0, %22 ]
  %30 = load ptr, ptr %4, align 8, !tbaa !76
  %31 = getelementptr inbounds nuw i32, ptr %30, i64 %.022
  %32 = load i32, ptr %31, align 4, !tbaa !53
  %33 = call noundef i32 @_ZN3net20QuicTagToQuicVersionEj(i32 noundef %32)
  %34 = load ptr, ptr %1, align 8, !tbaa !78
  %35 = getelementptr inbounds nuw i32, ptr %34, i64 %.022
  %36 = load i32, ptr %35, align 4, !tbaa !80
  %37 = icmp ne i32 %33, %36
  %38 = add nuw i64 %.022, 1
  %39 = load i64, ptr %5, align 8, !tbaa !27
  %40 = icmp uge i64 %38, %39
  %.not20 = select i1 %40, i1 true, i1 %37
  br i1 %.not20, label %._crit_edge, label %.lr.ph, !llvm.loop !82

41:                                               ; preds = %._crit_edge
  %42 = getelementptr inbounds nuw i8, ptr %2, i64 8
  %43 = load i64, ptr %42, align 8, !tbaa !26
  %44 = call noundef nonnull align 8 dereferenceable(32) ptr @_ZNSt7__cxx1112basic_stringIcSt11char_traitsIcESaIcEE10_M_replaceEmmPKcm(ptr noundef nonnull align 8 dereferenceable(32) %2, i64 noundef 0, i64 noundef %43, ptr noundef nonnull @.str.7, i64 noundef 25)
  br label %.critedge

.critedge:                                        ; preds = %17, %._crit_edge, %41, %13
  %.1 = phi i32 [ 34, %13 ], [ 55, %41 ], [ 0, %._crit_edge ], [ 0, %17 ]
  call void @llvm.lifetime.end.p0(i64 8, ptr nonnull %5) #13
  call void @llvm.lifetime.end.p0(i64 8, ptr nonnull %4) #13
  br label %45

45:                                               ; preds = %.critedge, %7
  %.017 = phi i32 [ 33, %7 ], [ %.1, %.critedge ]
  ret i32 %.017
}